target datalayout = "e-m:e-p270:32:32-p271:32:32-p272:64:64-i64:64-i128:128-f80:128-n8:16:32:64-S128"
target triple = "x86_64-pc-linux-gnu"

%"class.std::__cxx11::basic_string" = type { %"struct.std::__cxx11::basic_string<char>::_Alloc_hider", i64, %union.anon }
%"struct.std::__cxx11::basic_string<char>::_Alloc_hider" = type { ptr }
%union.anon = type { i64, [8 x i8] }
%"class.logging::LogMessageVoidify" = type { i8 }
%"class.logging::LogMessage" = type <{ i32, [4 x i8], %"class.std::__cxx11::basic_ostringstream", i64, ptr, i32, [4 x i8] }>
%"class.std::__cxx11::basic_ostringstream" = type { %"class.std::basic_ostream.base", %"class.std::__cxx11::basic_stringbuf", %"class.std::basic_ios" }
%"class.std::basic_ostream.base" = type { ptr }
%"class.std::__cxx11::basic_stringbuf" = type { %"class.std::basic_streambuf", i32, %"class.std::__cxx11::basic_string" }
%"class.std::basic_streambuf" = type { ptr, ptr, ptr, ptr, ptr, ptr, ptr, %"class.std::locale" }
%"class.std::locale" = type { ptr }
%"class.std::basic_ios" = type { %"class.std::ios_base", ptr, i8, i8, ptr, ptr, ptr, ptr }
%"class.std::ios_base" = type { ptr, i64, i64, i32, i32, i32, ptr, %"struct.std::ios_base::_Words", [8 x %"struct.std::ios_base::_Words"], i32, ptr, %"class.std::locale" }
%"struct.std::ios_base::_Words" = type { ptr, i64 }

@.str = private unnamed_addr constant [126 x i8] c"generated/home/dtcxzyw/WorkSpace/Projects/compilers/llvm-opt-benchmark/bench/libquic/libquic/src/net/quic/core/quic_framer.cc\00", align 1
@.str.1 = private unnamed_addr constant [34 x i8] c"Failed to determine StreamIDSize.\00", align 1
@.str.2 = private unnamed_addr constant [38 x i8] c"Failed to determine StreamOffsetSize.\00", align 1

; Function Attrs: inlinehint mustprogress nounwind uwtable
define linkonce_odr noundef i32 @_ZStorSt12_Ios_IostateS_(i32 noundef %0, i32 noundef %1) #5 comdat {
  %3 = alloca i32, align 4
  %4 = alloca i32, align 4
  store i32 %0, ptr %3, align 4, !tbaa !547
  store i32 %1, ptr %4, align 4, !tbaa !547
  %5 = load i32, ptr %3, align 4, !tbaa !547
  %6 = load i32, ptr %4, align 4, !tbaa !547
  %7 = or i32 %5, %6
  ret i32 %7
}

; Function Attrs: mustprogress nounwind uwtable
define available_externally noundef i32 @_ZNKSt9basic_iosIcSt11char_traitsIcEE7rdstateEv(ptr noundef nonnull align 8 dereferenceable(264) %0) #1 align 2 {
  %2 = alloca ptr, align 8
  store ptr %0, ptr %2, align 8, !tbaa !545
  %3 = load ptr, ptr %2, align 8
  %4 = getelementptr inbounds nuw %"class.std::ios_base", ptr %3, i32 0, i32 5
  %5 = load i32, ptr %4, align 8, !tbaa !549
  ret i32 %5
}

; Function Attrs: mustprogress nounwind uwtable
define linkonce_odr noundef i64 @_ZNSt11char_traitsIcE6lengthEPKc(ptr noundef %0) #1 comdat align 2 {
  %2 = alloca ptr, align 8
  store ptr %0, ptr %2, align 8, !tbaa !98
  %3 = load ptr, ptr %2, align 8, !tbaa !98
  %4 = call i64 @strlen(ptr noundef %3) #17
  ret i64 %4
}

; Function Attrs: mustprogress uwtable
define available_externally void @_ZNSt9basic_iosIcSt11char_traitsIcEE8setstateESt12_Ios_Iostate(ptr noundef nonnull align 8 dereferenceable(264) %0, i32 noundef %1) #0 align 2 {
  %3 = alloca ptr, align 8
  %4 = alloca i32, align 4
  store ptr %0, ptr %3, align 8, !tbaa !545
  store i32 %1, ptr %4, align 4, !tbaa !547
  %5 = load ptr, ptr %3, align 8
  %6 = call noundef i32 @_ZNKSt9basic_iosIcSt11char_traitsIcEE7rdstateEv(ptr noundef nonnull align 8 dereferenceable(264) %5)
  %7 = load i32, ptr %4, align 4, !tbaa !547
  %8 = call noundef i32 @_ZStorSt12_Ios_IostateS_(i32 noundef %6, i32 noundef %7)
  call void @_ZNSt9basic_iosIcSt11char_traitsIcEE5clearESt12_Ios_Iostate(ptr noundef nonnull align 8 dereferenceable(264) %5, i32 noundef %8)
  ret void
}

; Function Attrs: mustprogress nounwind uwtable
define linkonce_odr void @_ZN7logging17LogMessageVoidifyanERSo(ptr noundef nonnull align 1 dereferenceable(1) %0, ptr noundef nonnull align 8 dereferenceable(8) %1) #1 comdat align 2 {
  %3 = alloca ptr, align 8
  %4 = alloca ptr, align 8
  store ptr %0, ptr %3, align 8, !tbaa !94
  store ptr %1, ptr %4, align 8, !tbaa !96
  ret void
}

; Function Attrs: inlinehint mustprogress uwtable
define available_externally noundef nonnull align 8 dereferenceable(8) ptr @_ZStlsISt11char_traitsIcEERSt13basic_ostreamIcT_ES5_PKc(ptr noundef nonnull align 8 dereferenceable(8) %0, ptr noundef %1) #3 {
  %3 = alloca ptr, align 8
  %4 = alloca ptr, align 8
  store ptr %0, ptr %3, align 8, !tbaa !96
  store ptr %1, ptr %4, align 8, !tbaa !98
  %5 = load ptr, ptr %4, align 8, !tbaa !98
  %6 = icmp ne ptr %5, null
  br i1 %6, label %13, label %7

7:                                                ; preds = %2
  %8 = load ptr, ptr %3, align 8, !tbaa !96
  %9 = load ptr, ptr %8, align 8, !tbaa !12
  %10 = getelementptr i8, ptr %9, i64 -24
  %11 = load i64, ptr %10, align 8
  %12 = getelementptr inbounds i8, ptr %8, i64 %11
  call void @_ZNSt9basic_iosIcSt11char_traitsIcEE8setstateESt12_Ios_Iostate(ptr noundef nonnull align 8 dereferenceable(264) %12, i32 noundef 1)
  br label %19

13:                                               ; preds = %2
  %14 = load ptr, ptr %3, align 8, !tbaa !96
  %15 = load ptr, ptr %4, align 8, !tbaa !98
  %16 = load ptr, ptr %4, align 8, !tbaa !98
  %17 = call noundef i64 @_ZNSt11char_traitsIcE6lengthEPKc(ptr noundef %16)
  %18 = call noundef nonnull align 8 dereferenceable(8) ptr @_ZSt16__ostream_insertIcSt11char_traitsIcEERSt13basic_ostreamIT_T0_ES6_PKS3_l(ptr noundef nonnull align 8 dereferenceable(8) %14, ptr noundef %15, i64 noundef %17)
  br label %19

19:                                               ; preds = %13, %7
  %20 = load ptr, ptr %3, align 8, !tbaa !96
  ret ptr %20
}

; Function Attrs: mustprogress nounwind uwtable
define linkonce_odr noundef nonnull align 8 dereferenceable(8) ptr @_ZN7logging10LogMessage6streamEv(ptr noundef nonnull align 8 dereferenceable(404) %0) #1 comdat align 2 {
  %2 = alloca ptr, align 8
  store ptr %0, ptr %2, align 8, !tbaa !99
  %3 = load ptr, ptr %2, align 8
  %4 = getelementptr inbounds nuw %"class.logging::LogMessage", ptr %3, i32 0, i32 2
  ret ptr %4
}

; Function Attrs: mustprogress nounwind uwtable
define linkonce_odr void @_ZN7logging17LogMessageVoidifyC2Ev(ptr noundef nonnull align 1 dereferenceable(1) %0) unnamed_addr #1 comdat align 2 {
  %2 = alloca ptr, align 8
  store ptr %0, ptr %2, align 8, !tbaa !94
  ret void
}

; Function Attrs: mustprogress uwtable
define noundef i64 @_ZN3net10QuicFramer19GetStreamOffsetSizeEm(i64 noundef %0) #0 align 2 personality ptr @__gxx_personality_v0 {
  %2 = alloca i64, align 8
  %3 = alloca i64, align 8
  %4 = alloca i32, align 4
  %5 = alloca i32, align 4
  %6 = alloca %"class.logging::LogMessageVoidify", align 1
  %7 = alloca %"class.logging::LogMessage", align 8
  %8 = alloca i1, align 1
  %9 = alloca i1, align 1
  %10 = alloca ptr, align 8
  %11 = alloca i32, align 4
  store i64 %0, ptr %3, align 8, !tbaa !63
  %12 = load i64, ptr %3, align 8, !tbaa !63
  %13 = icmp eq i64 %12, 0
  br i1 %13, label %14, label %15

14:                                               ; preds = %1
  store i64 0, ptr %2, align 8
  br label %62

15:                                               ; preds = %1
  %16 = load i64, ptr %3, align 8, !tbaa !63
  %17 = lshr i64 %16, 8
  store i64 %17, ptr %3, align 8, !tbaa !63
  call void @llvm.lifetime.start.p0(i64 4, ptr %4) #17
  store i32 2, ptr %4, align 4, !tbaa !85
  br label %18

18:                                               ; preds = %31, %15
  %19 = load i32, ptr %4, align 4, !tbaa !85
  %20 = icmp sle i32 %19, 8
  br i1 %20, label %22, label %21

21:                                               ; preds = %18
  store i32 2, ptr %5, align 4
  br label %34

22:                                               ; preds = %18
  %23 = load i64, ptr %3, align 8, !tbaa !63
  %24 = lshr i64 %23, 8
  store i64 %24, ptr %3, align 8, !tbaa !63
  %25 = load i64, ptr %3, align 8, !tbaa !63
  %26 = icmp eq i64 %25, 0
  br i1 %26, label %27, label %30

27:                                               ; preds = %22
  %28 = load i32, ptr %4, align 4, !tbaa !85
  %29 = sext i32 %28 to i64
  store i64 %29, ptr %2, align 8
  store i32 1, ptr %5, align 4
  br label %34

30:                                               ; preds = %22
  br label %31

31:                                               ; preds = %30
  %32 = load i32, ptr %4, align 4, !tbaa !85
  %33 = add nsw i32 %32, 1
  store i32 %33, ptr %4, align 4, !tbaa !85
  br label %18, !llvm.loop !91

34:                                               ; preds = %27, %21
  call void @llvm.lifetime.end.p0(i64 4, ptr %4) #17
  %35 = load i32, ptr %5, align 4
  switch i32 %35, label %69 [
    i32 2, label %36
    i32 1, label %62
  ]

36:                                               ; preds = %34
  %37 = call noundef zeroext i1 @_ZN7logging22ShouldCreateLogMessageEi(i32 noundef 2)
  call void @llvm.lifetime.start.p0(i64 1, ptr %6) #17
  store i1 false, ptr %8, align 1
  store i1 false, ptr %9, align 1
  br i1 %37, label %39, label %38

38:                                               ; preds = %36
  br label %45

39:                                               ; preds = %36
  call void @_ZN7logging17LogMessageVoidifyC2Ev(ptr noundef nonnull align 1 dereferenceable(1) %6)
  call void @llvm.lifetime.start.p0(i64 408, ptr %7) #17
  store i1 true, ptr %8, align 1
  call void @_ZN7logging10LogMessageC1EPKcii(ptr noundef nonnull align 8 dereferenceable(404) %7, ptr noundef @.str, i32 noundef 256, i32 noundef 2)
  store i1 true, ptr %9, align 1
  %40 = invoke noundef nonnull align 8 dereferenceable(8) ptr @_ZN7logging10LogMessage6streamEv(ptr noundef nonnull align 8 dereferenceable(404) %7)
          to label %41 unwind label %52

41:                                               ; preds = %39
  %42 = invoke noundef nonnull align 8 dereferenceable(8) ptr @_ZStlsISt11char_traitsIcEERSt13basic_ostreamIcT_ES5_PKc(ptr noundef nonnull align 8 dereferenceable(8) %40, ptr noundef @.str.2)
          to label %43 unwind label %52

43:                                               ; preds = %41
  invoke void @_ZN7logging17LogMessageVoidifyanERSo(ptr noundef nonnull align 1 dereferenceable(1) %6, ptr noundef nonnull align 8 dereferenceable(8) %42)
          to label %44 unwind label %52

44:                                               ; preds = %43
  br label %45

45:                                               ; preds = %44, %38
  %46 = load i1, ptr %9, align 1
  br i1 %46, label %47, label %48

47:                                               ; preds = %45
  call void @_ZN7logging10LogMessageD1Ev(ptr noundef nonnull align 8 dereferenceable(404) %7) #17
  br label %48

48:                                               ; preds = %47, %45
  %49 = load i1, ptr %8, align 1
  br i1 %49, label %50, label %51

50:                                               ; preds = %48
  call void @llvm.lifetime.end.p0(i64 408, ptr %7) #17
  br label %51

51:                                               ; preds = %50, %48
  call void @llvm.lifetime.end.p0(i64 1, ptr %6) #17
  store i64 8, ptr %2, align 8
  br label %62

52:                                               ; preds = %43, %41, %39
  %53 = landingpad { ptr, i32 }
          cleanup
  %54 = extractvalue { ptr, i32 } %53, 0
  store ptr %54, ptr %10, align 8
  %55 = extractvalue { ptr, i32 } %53, 1
  store i32 %55, ptr %11, align 4
  %56 = load i1, ptr %9, align 1
  br i1 %56, label %57, label %58

57:                                               ; preds = %52
  call void @_ZN7logging10LogMessageD1Ev(ptr noundef nonnull align 8 dereferenceable(404) %7) #17
  br label %58

58:                                               ; preds = %57, %52
  %59 = load i1, ptr %8, align 1
  br i1 %59, label %60, label %61

60:                                               ; preds = %58
  call void @llvm.lifetime.end.p0(i64 408, ptr %7) #17
  br label %61

61:                                               ; preds = %60, %58
  call void @llvm.lifetime.end.p0(i64 1, ptr %6) #17
  br label %64

62:                                               ; preds = %51, %34, %14
  %63 = load i64, ptr %2, align 8
  ret i64 %63

64:                                               ; preds = %61
  %65 = load ptr, ptr %10, align 8
  %66 = load i32, ptr %11, align 4
  %67 = insertvalue { ptr, i32 } poison, ptr %65, 0
  %68 = insertvalue { ptr, i32 } %67, i32 %66, 1
  resume { ptr, i32 } %68

69:                                               ; preds = %34
  unreachable
}

; Function Attrs: mustprogress uwtable
define noundef i64 @_ZN3net10QuicFramer15GetStreamIdSizeEj(i32 noundef %0) #0 align 2 personality ptr @__gxx_personality_v0 {
  %2 = alloca i64, align 8
  %3 = alloca i32, align 4
  %4 = alloca i32, align 4
  %5 = alloca i32, align 4
  %6 = alloca %"class.logging::LogMessageVoidify", align 1
  %7 = alloca %"class.logging::LogMessage", align 8
  %8 = alloca i1, align 1
  %9 = alloca i1, align 1
  %10 = alloca ptr, align 8
  %11 = alloca i32, align 4
  store i32 %0, ptr %3, align 4, !tbaa !85
  call void @llvm.lifetime.start.p0(i64 4, ptr %4) #17
  store i32 1, ptr %4, align 4, !tbaa !85
  br label %12

12:                                               ; preds = %25, %1
  %13 = load i32, ptr %4, align 4, !tbaa !85
  %14 = icmp sle i32 %13, 4
  br i1 %14, label %16, label %15

15:                                               ; preds = %12
  store i32 2, ptr %5, align 4
  br label %28

16:                                               ; preds = %12
  %17 = load i32, ptr %3, align 4, !tbaa !85
  %18 = lshr i32 %17, 8
  store i32 %18, ptr %3, align 4, !tbaa !85
  %19 = load i32, ptr %3, align 4, !tbaa !85
  %20 = icmp eq i32 %19, 0
  br i1 %20, label %21, label %24

21:                                               ; preds = %16
  %22 = load i32, ptr %4, align 4, !tbaa !85
  %23 = sext i32 %22 to i64
  store i64 %23, ptr %2, align 8
  store i32 1, ptr %5, align 4
  br label %28

24:                                               ; preds = %16
  br label %25

25:                                               ; preds = %24
  %26 = load i32, ptr %4, align 4, !tbaa !85
  %27 = add nsw i32 %26, 1
  store i32 %27, ptr %4, align 4, !tbaa !85
  br label %12, !llvm.loop !89

28:                                               ; preds = %21, %15
  call void @llvm.lifetime.end.p0(i64 4, ptr %4) #17
  %29 = load i32, ptr %5, align 4
  switch i32 %29, label %63 [
    i32 2, label %30
    i32 1, label %56
  ]

30:                                               ; preds = %28
  %31 = call noundef zeroext i1 @_ZN7logging22ShouldCreateLogMessageEi(i32 noundef 2)
  call void @llvm.lifetime.start.p0(i64 1, ptr %6) #17
  store i1 false, ptr %8, align 1
  store i1 false, ptr %9, align 1
  br i1 %31, label %33, label %32

32:                                               ; preds = %30
  br label %39

33:                                               ; preds = %30
  call void @_ZN7logging17LogMessageVoidifyC2Ev(ptr noundef nonnull align 1 dereferenceable(1) %6)
  call void @llvm.lifetime.start.p0(i64 408, ptr %7) #17
  store i1 true, ptr %8, align 1
  call void @_ZN7logging10LogMessageC1EPKcii(ptr noundef nonnull align 8 dereferenceable(404) %7, ptr noundef @.str, i32 noundef 238, i32 noundef 2)
  store i1 true, ptr %9, align 1
  %34 = invoke noundef nonnull align 8 dereferenceable(8) ptr @_ZN7logging10LogMessage6streamEv(ptr noundef nonnull align 8 dereferenceable(404) %7)
          to label %35 unwind label %46

35:                                               ; preds = %33
  %36 = invoke noundef nonnull align 8 dereferenceable(8) ptr @_ZStlsISt11char_traitsIcEERSt13basic_ostreamIcT_ES5_PKc(ptr noundef nonnull align 8 dereferenceable(8) %34, ptr noundef @.str.1)
          to label %37 unwind label %46

37:                                               ; preds = %35
  invoke void @_ZN7logging17LogMessageVoidifyanERSo(ptr noundef nonnull align 1 dereferenceable(1) %6, ptr noundef nonnull align 8 dereferenceable(8) %36)
          to label %38 unwind label %46

38:                                               ; preds = %37
  br label %39

39:                                               ; preds = %38, %32
  %40 = load i1, ptr %9, align 1
  br i1 %40, label %41, label %42

41:                                               ; preds = %39
  call void @_ZN7logging10LogMessageD1Ev(ptr noundef nonnull align 8 dereferenceable(404) %7) #17
  br label %42

42:                                               ; preds = %41, %39
  %43 = load i1, ptr %8, align 1
  br i1 %43, label %44, label %45

44:                                               ; preds = %42
  call void @llvm.lifetime.end.p0(i64 408, ptr %7) #17
  br label %45

45:                                               ; preds = %44, %42
  call void @llvm.lifetime.end.p0(i64 1, ptr %6) #17
  store i64 4, ptr %2, align 8
  br label %56

46:                                               ; preds = %37, %35, %33
  %47 = landingpad { ptr, i32 }
          cleanup
  %48 = extractvalue { ptr, i32 } %47, 0
  store ptr %48, ptr %10, align 8
  %49 = extractvalue { ptr, i32 } %47, 1
  store i32 %49, ptr %11, align 4
  %50 = load i1, ptr %9, align 1
  br i1 %50, label %51, label %52

51:                                               ; preds = %46
  call void @_ZN7logging10LogMessageD1Ev(ptr noundef nonnull align 8 dereferenceable(404) %7) #17
  br label %52

52:                                               ; preds = %51, %46
  %53 = load i1, ptr %8, align 1
  br i1 %53, label %54, label %55

54:                                               ; preds = %52
  call void @llvm.lifetime.end.p0(i64 408, ptr %7) #17
  br label %55

55:                                               ; preds = %54, %52
  call void @llvm.lifetime.end.p0(i64 1, ptr %6) #17
  br label %58

56:                                               ; preds = %45, %28
  %57 = load i64, ptr %2, align 8
  ret i64 %57

58:                                               ; preds = %55
  %59 = load ptr, ptr %10, align 8
  %60 = load i32, ptr %11, align 4
  %61 = insertvalue { ptr, i32 } poison, ptr %59, 0
  %62 = insertvalue { ptr, i32 } %61, i32 %60, 1
  resume { ptr, i32 } %62

63:                                               ; preds = %28
  unreachable
}

; Function Attrs: mustprogress uwtable
define noundef i64 @_ZN3net10QuicFramer21GetMinStreamFrameSizeEjmb(i32 noundef %0, i64 noundef %1, i1 noundef zeroext %2) #0 align 2 {
  %4 = alloca i32, align 4
  %5 = alloca i64, align 8
  %6 = alloca i8, align 1
  store i32 %0, ptr %4, align 4, !tbaa !85
  store i64 %1, ptr %5, align 8, !tbaa !63
  %7 = zext i1 %2 to i8
  store i8 %7, ptr %6, align 1, !tbaa !86
  %8 = load i32, ptr %4, align 4, !tbaa !85
  %9 = call noundef i64 @_ZN3net10QuicFramer15GetStreamIdSizeEj(i32 noundef %8)
  %10 = add i64 1, %9
  %11 = load i64, ptr %5, align 8, !tbaa !63
  %12 = call noundef i64 @_ZN3net10QuicFramer19GetStreamOffsetSizeEm(i64 noundef %11)
  %13 = add i64 %10, %12
  %14 = load i8, ptr %6, align 1, !tbaa !86, !range !87, !noundef !88
  %15 = trunc i8 %14 to i1
  %16 = select i1 %15, i64 0, i64 2
  %17 = add i64 %13, %16
  ret i64 %17
}