; Function Attrs: mustprogress uwtable
define noundef i64 @_ZN3net10QuicFramer21GetMinStreamFrameSizeEjmb(i32 noundef %0, i64 noundef %1, i1 noundef zeroext %2) local_unnamed_addr #0 align 2 personality ptr @__gxx_personality_v0 {
  %4 = alloca %"class.logging::LogMessage", align 8
  %5 = alloca %"class.logging::LogMessage", align 8
  br label %6

6:                                                ; preds = %8, %3
  %.01225.i = phi i32 [ %0, %3 ], [ %9, %8 ]
  %.01624.i = phi i32 [ 1, %3 ], [ %10, %8 ]
  %7 = icmp ult i32 %.01225.i, 256
  br i1 %7, label %11, label %8

8:                                                ; preds = %6
  %9 = lshr i32 %.01225.i, 8
  %10 = add nuw nsw i32 %.01624.i, 1
  %exitcond.not.i = icmp eq i32 %10, 5
  br i1 %exitcond.not.i, label %13, label %6, !llvm.loop !77

11:                                               ; preds = %6
  %narrow = add nuw i32 %.01624.i, 1
  %12 = zext i32 %narrow to i64
  br label %_ZN3net10QuicFramer15GetStreamIdSizeEj.exit

13:                                               ; preds = %8
  %14 = tail call noundef zeroext i1 @_ZN7logging22ShouldCreateLogMessageEi(i32 noundef 2)
  br i1 %14, label %15, label %_ZN3net10QuicFramer15GetStreamIdSizeEj.exit

15:                                               ; preds = %13
  call void @llvm.lifetime.start.p0(i64 408, ptr nonnull %5) #26
  call void @_ZN7logging10LogMessageC1EPKcii(ptr noundef nonnull align 8 dereferenceable(404) %5, ptr noundef nonnull @.str, i32 noundef 238, i32 noundef 2)
  %16 = getelementptr inbounds nuw i8, ptr %5, i64 8
  %17 = invoke noundef nonnull align 8 dereferenceable(8) ptr @_ZSt16__ostream_insertIcSt11char_traitsIcEERSt13basic_ostreamIT_T0_ES6_PKS3_l(ptr noundef nonnull align 8 dereferenceable(8) %16, ptr noundef nonnull @.str.1, i64 noundef 33)
          to label %.critedge.i unwind label %18

.critedge.i:                                      ; preds = %15
  call void @_ZN7logging10LogMessageD1Ev(ptr noundef nonnull align 8 dereferenceable(404) %5) #26
  call void @llvm.lifetime.end.p0(i64 408, ptr nonnull %5) #26
  br label %_ZN3net10QuicFramer15GetStreamIdSizeEj.exit

common.resume:                                    ; preds = %31, %18
  %common.resume.op = phi { ptr, i32 } [ %19, %18 ], [ %32, %31 ]
  resume { ptr, i32 } %common.resume.op

18:                                               ; preds = %15
  %19 = landingpad { ptr, i32 }
          cleanup
  call void @_ZN7logging10LogMessageD1Ev(ptr noundef nonnull align 8 dereferenceable(404) %5) #26
  call void @llvm.lifetime.end.p0(i64 408, ptr nonnull %5) #26
  br label %common.resume

_ZN3net10QuicFramer15GetStreamIdSizeEj.exit:      ; preds = %11, %13, %.critedge.i
  %.1.i = phi i64 [ %12, %11 ], [ 5, %13 ], [ 5, %.critedge.i ]
  %20 = icmp eq i64 %1, 0
  br i1 %20, label %_ZN3net10QuicFramer19GetStreamOffsetSizeEm.exit, label %.preheader.i

.preheader.i:                                     ; preds = %_ZN3net10QuicFramer15GetStreamIdSizeEj.exit, %22
  %.014.in29.i = phi i64 [ %.01430.i, %22 ], [ %1, %_ZN3net10QuicFramer15GetStreamIdSizeEj.exit ]
  %.01828.i = phi i32 [ %23, %22 ], [ 2, %_ZN3net10QuicFramer15GetStreamIdSizeEj.exit ]
  %21 = icmp ult i64 %.014.in29.i, 65536
  br i1 %21, label %24, label %22

22:                                               ; preds = %.preheader.i
  %.01430.i = lshr i64 %.014.in29.i, 8
  %23 = add nuw nsw i32 %.01828.i, 1
  %exitcond.not.i3 = icmp eq i32 %23, 9
  br i1 %exitcond.not.i3, label %26, label %.preheader.i, !llvm.loop !78

24:                                               ; preds = %.preheader.i
  %25 = zext nneg i32 %.01828.i to i64
  br label %_ZN3net10QuicFramer19GetStreamOffsetSizeEm.exit

26:                                               ; preds = %22
  %27 = call noundef zeroext i1 @_ZN7logging22ShouldCreateLogMessageEi(i32 noundef 2)
  br i1 %27, label %28, label %_ZN3net10QuicFramer19GetStreamOffsetSizeEm.exit

28:                                               ; preds = %26
  call void @llvm.lifetime.start.p0(i64 408, ptr nonnull %4) #26
  call void @_ZN7logging10LogMessageC1EPKcii(ptr noundef nonnull align 8 dereferenceable(404) %4, ptr noundef nonnull @.str, i32 noundef 256, i32 noundef 2)
  %29 = getelementptr inbounds nuw i8, ptr %4, i64 8
  %30 = invoke noundef nonnull align 8 dereferenceable(8) ptr @_ZSt16__ostream_insertIcSt11char_traitsIcEERSt13basic_ostreamIT_T0_ES6_PKS3_l(ptr noundef nonnull align 8 dereferenceable(8) %29, ptr noundef nonnull @.str.2, i64 noundef 37)
          to label %.critedge.i4 unwind label %31

.critedge.i4:                                     ; preds = %28
  call void @_ZN7logging10LogMessageD1Ev(ptr noundef nonnull align 8 dereferenceable(404) %4) #26
  call void @llvm.lifetime.end.p0(i64 408, ptr nonnull %4) #26
  br label %_ZN3net10QuicFramer19GetStreamOffsetSizeEm.exit

31:                                               ; preds = %28
  %32 = landingpad { ptr, i32 }
          cleanup
  call void @_ZN7logging10LogMessageD1Ev(ptr noundef nonnull align 8 dereferenceable(404) %4) #26
  call void @llvm.lifetime.end.p0(i64 408, ptr nonnull %4) #26
  br label %common.resume

_ZN3net10QuicFramer19GetStreamOffsetSizeEm.exit:  ; preds = %_ZN3net10QuicFramer15GetStreamIdSizeEj.exit, %24, %26, %.critedge.i4
  %.0.i = phi i64 [ %25, %24 ], [ 0, %_ZN3net10QuicFramer15GetStreamIdSizeEj.exit ], [ 8, %26 ], [ 8, %.critedge.i4 ]
  %33 = select i1 %2, i64 0, i64 2
  %34 = add nuw nsw i64 %.1.i, %33
  %35 = add nuw nsw i64 %34, %.0.i
  ret i64 %35
}